; ModuleID = '45/2342.c'
source_filename = "45/2342.c"
target datalayout = "e-m:e-p270:32:32-p271:32:32-p272:64:64-i64:64-f80:128-n8:16:32:64-S128"
target triple = "x86_64-pc-linux-gnu"

@.str = private unnamed_addr constant [6 x i8] c"%s %s\00", align 1
@.str.1 = private unnamed_addr constant [3 x i8] c"%d\00", align 1

; Function Attrs: noinline nounwind uwtable
define dso_local void @main() #0 {
  %1 = alloca [50 x i8], align 16
  %2 = alloca [50 x i8], align 16
  %3 = alloca i32, align 4
  %4 = alloca i32, align 4
  %5 = alloca i32, align 4
  %6 = alloca i32, align 4
  %7 = alloca i32, align 4
  %8 = alloca i32, align 4
  store i32 0, i32* %6, align 4
  store i32 -1, i32* %8, align 4
  %9 = getelementptr inbounds [50 x i8], [50 x i8]* %2, i64 0, i64 0
  %10 = getelementptr inbounds [50 x i8], [50 x i8]* %1, i64 0, i64 0
  %11 = call i32 (i8*, ...) @__isoc99_scanf(i8* getelementptr inbounds ([6 x i8], [6 x i8]* @.str, i64 0, i64 0), i8* %9, i8* %10)
  %12 = getelementptr inbounds [50 x i8], [50 x i8]* %1, i64 0, i64 0
  %13 = call i64 @strlen(i8* %12) #3
  %14 = trunc i64 %13 to i32
  store i32 %14, i32* %4, align 4
  %15 = getelementptr inbounds [50 x i8], [50 x i8]* %2, i64 0, i64 0
  %16 = call i64 @strlen(i8* %15) #3
  %17 = trunc i64 %16 to i32
  store i32 %17, i32* %5, align 4
  store i32 0, i32* %6, align 4
  br label %18

18:                                               ; preds = %56, %0
  %19 = load i32, i32* %6, align 4
  %20 = load i32, i32* %4, align 4
  %21 = load i32, i32* %5, align 4
  %22 = sub nsw i32 %20, %21
  %23 = add nsw i32 %22, 1
  %24 = icmp slt i32 %19, %23
  br i1 %24, label %25, label %59

25:                                               ; preds = %18
  store i32 0, i32* %7, align 4
  br label %26

26:                                               ; preds = %46, %25
  %27 = load i32, i32* %7, align 4
  %28 = load i32, i32* %5, align 4
  %29 = icmp slt i32 %27, %28
  br i1 %29, label %30, label %44

30:                                               ; preds = %26
  %31 = load i32, i32* %7, align 4
  %32 = sext i32 %31 to i64
  %33 = getelementptr inbounds [50 x i8], [50 x i8]* %2, i64 0, i64 %32
  %34 = load i8, i8* %33, align 1
  %35 = sext i8 %34 to i32
  %36 = load i32, i32* %7, align 4
  %37 = load i32, i32* %6, align 4
  %38 = add nsw i32 %36, %37
  %39 = sext i32 %38 to i64
  %40 = getelementptr inbounds [50 x i8], [50 x i8]* %1, i64 0, i64 %39
  %41 = load i8, i8* %40, align 1
  %42 = sext i8 %41 to i32
  %43 = icmp eq i32 %35, %42
  br label %44

44:                                               ; preds = %30, %26
  %45 = phi i1 [ false, %26 ], [ %43, %30 ]
  br i1 %45, label %46, label %49

46:                                               ; preds = %44
  %47 = load i32, i32* %7, align 4
  %48 = add nsw i32 %47, 1
  store i32 %48, i32* %7, align 4
  br label %26

49:                                               ; preds = %44
  %50 = load i32, i32* %7, align 4
  %51 = load i32, i32* %5, align 4
  %52 = icmp eq i32 %50, %51
  br i1 %52, label %53, label %55

53:                                               ; preds = %49
  %54 = load i32, i32* %6, align 4
  store i32 %54, i32* %8, align 4
  br label %59

55:                                               ; preds = %49
  br label %56

56:                                               ; preds = %55
  %57 = load i32, i32* %6, align 4
  %58 = add nsw i32 %57, 1
  store i32 %58, i32* %6, align 4
  br label %18

59:                                               ; preds = %53, %18
  %60 = load i32, i32* %8, align 4
  %61 = icmp ne i32 %60, -1
  br i1 %61, label %62, label %65

62:                                               ; preds = %59
  %63 = load i32, i32* %8, align 4
  %64 = call i32 (i8*, ...) @printf(i8* getelementptr inbounds ([3 x i8], [3 x i8]* @.str.1, i64 0, i64 0), i32 %63)
  br label %65

65:                                               ; preds = %62, %59
  ret void
}

declare dso_local i32 @__isoc99_scanf(i8*, ...) #1

; Function Attrs: nounwind readonly
declare dso_local i64 @strlen(i8*) #2

declare dso_local i32 @printf(i8*, ...) #1


!llvm.module.flags = !{!0}
!llvm.ident = !{!1}

!0 = !{i32 1, !"wchar_size", i32 4}
!1 = !{!"clang version 10.0.0-4ubuntu1 "}
